target datalayout = "e-m:e-p270:32:32-p271:32:32-p272:64:64-i64:64-i128:128-f80:128-n8:16:32:64-S128"
target triple = "x86_64-unknown-linux-gnu"

%struct.lock_class_key = type {}
%struct.hwmon_chip_info = type { ptr, ptr }
%struct.hwm_drvdata = type { ptr, ptr, ptr, %struct.hwm_energy_info, [12 x i8], i32, i8, %struct.wait_queue_head }
%struct.hwm_energy_info = type { i32, i64 }
%struct.wait_queue_head = type { %struct.spinlock, %struct.list_head }
%struct.spinlock = type { %union.anon }
%union.anon = type { %struct.raw_spinlock }
%struct.raw_spinlock = type { %struct.qspinlock }
%struct.qspinlock = type { %union.anon.0 }
%union.anon.0 = type { %struct.atomic_t }
%struct.atomic_t = type { i32 }
%struct.list_head = type { ptr, ptr }

@i915_hwmon_register.__key = internal global %struct.lock_class_key zeroinitializer, align 1
@.str = private unnamed_addr constant [19 x i8] c"&hwmon->hwmon_lock\00", align 1
@.str.1 = private unnamed_addr constant [5 x i8] c"i915\00", align 1
@i915_hwmon_register.__key.2 = internal global %struct.lock_class_key zeroinitializer, align 1
@.str.3 = private unnamed_addr constant [13 x i8] c"&ddat->waitq\00", align 1
@.str.4 = private unnamed_addr constant [10 x i8] c"i915_gt%u\00", align 1
@hwm_chip_info = internal constant %struct.hwmon_chip_info { ptr @hwm_ops, ptr @hwm_info }, align 8
@hwm_groups = internal global [2 x ptr] [ptr @hwm_attrgroup, ptr null], align 16
@hwm_gt_chip_info = internal constant %struct.hwmon_chip_info { ptr @hwm_gt_ops, ptr @hwm_gt_info }, align 8

; Function Attrs: fn_ret_thunk_extern nounwind null_pointer_is_valid
define internal fastcc void @hwm_energy(ptr nocapture noundef %0, ptr nocapture noundef writeonly %1) unnamed_addr #0 align 16 {
  %3 = getelementptr inbounds i8, ptr %0, i64 8
  %4 = load ptr, ptr %3, align 8
  %5 = load ptr, ptr %0, align 8
  %6 = getelementptr inbounds i8, ptr %0, i64 52
  %7 = load i32, ptr %6, align 4
  %8 = icmp slt i32 %7, 0
  %9 = select i1 %8, i64 312, i64 316
  %10 = getelementptr inbounds i8, ptr %5, i64 %9
  %11 = load i32, ptr %10, align 4
  %12 = getelementptr inbounds i8, ptr %5, i64 264
  tail call void @mutex_lock(ptr noundef %12) #10
  %13 = getelementptr inbounds i8, ptr %4, i64 24
  %14 = load ptr, ptr %13, align 8
  %15 = tail call i64 @intel_runtime_pm_get(ptr noundef %14) #10
  %16 = icmp eq i64 %15, 0
  br i1 %16, label %22, label %17

17:                                               ; preds = %2
  %18 = getelementptr inbounds i8, ptr %4, i64 144
  %19 = load ptr, ptr %18, align 8
  %20 = tail call i32 %19(ptr noundef %4, i32 %11, i1 noundef zeroext true) #10
  %21 = load ptr, ptr %13, align 8
  tail call void @intel_runtime_pm_put_unchecked(ptr noundef %21) #10
  br label %22

22:                                               ; preds = %17, %2
  %23 = phi i32 [ %20, %17 ], [ 0, %2 ]
  %24 = getelementptr inbounds i8, ptr %0, i64 24
  %25 = load i32, ptr %24, align 8
  %26 = icmp ult i32 %23, %25
  %27 = xor i32 %25, -1
  %28 = sub i32 0, %25
  %29 = select i1 %26, i32 %27, i32 %28
  %30 = add i32 %23, %29
  %31 = zext i32 %30 to i64
  %32 = getelementptr inbounds i8, ptr %0, i64 32
  %33 = load i64, ptr %32, align 8
  %34 = add i64 %33, %31
  store i64 %34, ptr %32, align 8
  store i32 %23, ptr %24, align 8
  %35 = getelementptr inbounds i8, ptr %5, i64 324
  %36 = load i32, ptr %35, align 4
  %37 = zext i64 %34 to i128
  %38 = mul nuw nsw i128 %37, 1000000
  %39 = zext nneg i32 %36 to i128
  %40 = lshr i128 %38, %39
  %41 = trunc i128 %40 to i64
  store i64 %41, ptr %1, align 8
  tail call void @mutex_unlock(ptr noundef %12) #10
  ret void
}

; Function Attrs: fn_ret_thunk_extern nounwind null_pointer_is_valid
define dso_local void @i915_hwmon_register(ptr noundef %0) local_unnamed_addr #0 align 16 {
  %2 = alloca i64, align 8
  %3 = getelementptr inbounds i8, ptr %0, i64 8
  %4 = load ptr, ptr %3, align 8
  %5 = getelementptr inbounds i8, ptr %0, i64 7168
  %6 = load ptr, ptr %5, align 8
  %7 = getelementptr inbounds i8, ptr %6, i64 28
  %8 = load i64, ptr %7, align 4
  %9 = and i64 %8, 8
  %10 = icmp eq i64 %9, 0
  br i1 %10, label %145, label %11

11:                                               ; preds = %1
  %12 = tail call noalias noundef dereferenceable_or_null(336) ptr @devm_kmalloc(ptr noundef %4, i64 noundef 336, i32 noundef 3520) #11
  %13 = icmp eq ptr %12, null
  br i1 %13, label %145, label %14

14:                                               ; preds = %11
  %15 = getelementptr inbounds i8, ptr %0, i64 9296
  store ptr %12, ptr %15, align 8
  %16 = getelementptr inbounds i8, ptr %12, i64 264
  tail call void @__mutex_init(ptr noundef %16, ptr noundef nonnull @.str, ptr noundef nonnull @i915_hwmon_register.__key) #10
  store ptr %12, ptr %12, align 8
  %17 = getelementptr inbounds i8, ptr %0, i64 7368
  %18 = getelementptr inbounds i8, ptr %12, i64 8
  store ptr %17, ptr %18, align 8
  %19 = getelementptr inbounds i8, ptr %12, i64 40
  tail call void @llvm.memcpy.p0.p0.i64(ptr noundef align 1 dereferenceable(5) %19, ptr noundef nonnull align 1 dereferenceable(5) @.str.1, i64 5, i1 false)
  %20 = getelementptr inbounds i8, ptr %12, i64 52
  store i32 -1, ptr %20, align 4
  %21 = getelementptr inbounds i8, ptr %12, i64 64
  tail call void @__init_waitqueue_head(ptr noundef %21, ptr noundef nonnull @.str.3, ptr noundef nonnull @i915_hwmon_register.__key.2) #10
  %22 = getelementptr inbounds i8, ptr %0, i64 9304
  %23 = getelementptr inbounds i8, ptr %12, i64 88
  br label %24

24:                                               ; preds = %39, %14
  %25 = phi i64 [ 0, %14 ], [ %40, %39 ]
  %26 = getelementptr [2 x ptr], ptr %22, i64 0, i64 %25
  %27 = load ptr, ptr %26, align 8
  %28 = icmp eq ptr %27, null
  br i1 %28, label %39, label %29

29:                                               ; preds = %24
  %30 = getelementptr %struct.hwm_drvdata, ptr %23, i64 %25
  store ptr %12, ptr %30, align 8
  %31 = getelementptr inbounds i8, ptr %27, i64 24
  %32 = load ptr, ptr %31, align 8
  %33 = getelementptr inbounds i8, ptr %30, i64 8
  store ptr %32, ptr %33, align 8
  %34 = getelementptr inbounds i8, ptr %30, i64 40
  %35 = trunc i64 %25 to i32
  %36 = tail call i32 (ptr, i64, ptr, ...) @snprintf(ptr noundef %34, i64 noundef 12, ptr noundef nonnull @.str.4, i32 noundef %35) #10
  %37 = getelementptr inbounds i8, ptr %30, i64 52
  %38 = trunc i64 %25 to i32
  store i32 %38, ptr %37, align 4
  br label %39

39:                                               ; preds = %29, %24
  %40 = add nuw nsw i64 %25, 1
  %41 = icmp eq i64 %25, 0
  br i1 %41, label %24, label %42, !llvm.loop !5

42:                                               ; preds = %39
  %43 = load ptr, ptr %15, align 8
  call void @llvm.lifetime.start.p0(i64 8, ptr nonnull %2) #10
  store i64 0, ptr %2, align 8, !annotation !8
  %44 = getelementptr inbounds i8, ptr %43, i64 296
  store i32 1278388, ptr %44, align 8
  %45 = getelementptr i8, ptr %0, i64 7188
  %46 = load i32, ptr %45, align 4
  %47 = zext i32 %46 to i64
  %48 = and i64 %47, 2176
  %49 = icmp eq i64 %48, 0
  br i1 %49, label %56, label %50

50:                                               ; preds = %42
  %51 = getelementptr inbounds i8, ptr %43, i64 300
  store i32 1333560, ptr %51, align 4
  %52 = getelementptr inbounds i8, ptr %43, i64 304
  store i32 1333552, ptr %52, align 8
  %53 = getelementptr inbounds i8, ptr %43, i64 308
  store i32 1333664, ptr %53, align 4
  %54 = getelementptr inbounds i8, ptr %43, i64 312
  store i32 1333564, ptr %54, align 8
  %55 = getelementptr inbounds i8, ptr %43, i64 316
  store i32 0, ptr %55, align 4
  br label %66

56:                                               ; preds = %42
  %57 = and i64 %47, 1024
  %58 = icmp eq i64 %57, 0
  %59 = getelementptr inbounds i8, ptr %43, i64 300
  br i1 %58, label %65, label %60

60:                                               ; preds = %56
  store i32 2424936, ptr %59, align 4
  %61 = getelementptr inbounds i8, ptr %43, i64 304
  store i32 0, ptr %61, align 8
  %62 = getelementptr inbounds i8, ptr %43, i64 308
  store i32 2424840, ptr %62, align 4
  %63 = getelementptr inbounds i8, ptr %43, i64 312
  store i32 2424940, ptr %63, align 8
  %64 = getelementptr inbounds i8, ptr %43, i64 316
  store i32 2424836, ptr %64, align 4
  br label %66

65:                                               ; preds = %56
  tail call void @llvm.memset.p0.i64(ptr noundef align 4 dereferenceable(20) %59, i8 0, i64 20, i1 false)
  br label %66

66:                                               ; preds = %65, %60, %50
  %67 = getelementptr inbounds i8, ptr %0, i64 7392
  %68 = load ptr, ptr %67, align 8
  %69 = tail call i64 @intel_runtime_pm_get(ptr noundef %68) #10
  %70 = icmp eq i64 %69, 0
  br i1 %70, label %82, label %71

71:                                               ; preds = %66
  %72 = getelementptr inbounds i8, ptr %43, i64 300
  %73 = load i32, ptr %72, align 4
  %74 = icmp eq i32 %73, 0
  br i1 %74, label %79, label %75

75:                                               ; preds = %71
  %76 = getelementptr inbounds i8, ptr %0, i64 7512
  %77 = load ptr, ptr %76, align 8
  %78 = tail call i32 %77(ptr noundef %17, i32 %73, i1 noundef zeroext true) #10
  br label %79

79:                                               ; preds = %75, %71
  %80 = phi i32 [ 0, %71 ], [ %78, %75 ]
  %81 = load ptr, ptr %67, align 8
  tail call void @intel_runtime_pm_put_unchecked(ptr noundef %81) #10
  br label %82

82:                                               ; preds = %79, %66
  %83 = phi i32 [ %80, %79 ], [ 0, %66 ]
  %84 = and i32 %83, 15
  %85 = getelementptr inbounds i8, ptr %43, i64 320
  store i32 %84, ptr %85, align 8
  %86 = lshr i32 %83, 8
  %87 = and i32 %86, 31
  %88 = getelementptr inbounds i8, ptr %43, i64 324
  store i32 %87, ptr %88, align 4
  %89 = lshr i32 %83, 16
  %90 = and i32 %89, 15
  %91 = getelementptr inbounds i8, ptr %43, i64 328
  store i32 %90, ptr %91, align 8
  %92 = getelementptr inbounds i8, ptr %43, i64 312
  %93 = load i32, ptr %92, align 8
  %94 = icmp eq i32 %93, 0
  br i1 %94, label %96, label %95

95:                                               ; preds = %82
  call fastcc void @hwm_energy(ptr noundef %43, ptr noundef nonnull %2)
  br label %96

96:                                               ; preds = %95, %82
  %97 = getelementptr inbounds i8, ptr %43, i64 316
  %98 = load i32, ptr %97, align 4
  %99 = icmp eq i32 %98, 0
  br i1 %99, label %113, label %100

100:                                              ; preds = %96
  %101 = getelementptr inbounds i8, ptr %0, i64 9304
  %102 = getelementptr inbounds i8, ptr %43, i64 88
  br label %103

103:                                              ; preds = %110, %100
  %104 = phi i64 [ 0, %100 ], [ %111, %110 ]
  %105 = getelementptr [2 x ptr], ptr %101, i64 0, i64 %104
  %106 = load ptr, ptr %105, align 8
  %107 = icmp eq ptr %106, null
  br i1 %107, label %110, label %108

108:                                              ; preds = %103
  %109 = getelementptr [2 x %struct.hwm_drvdata], ptr %102, i64 0, i64 %104
  call fastcc void @hwm_energy(ptr noundef %109, ptr noundef nonnull %2)
  br label %110

110:                                              ; preds = %108, %103
  %111 = add nuw nsw i64 %104, 1
  %112 = icmp eq i64 %104, 0
  br i1 %112, label %103, label %113, !llvm.loop !9

113:                                              ; preds = %110, %96
  call void @llvm.lifetime.end.p0(i64 8, ptr nonnull %2) #10
  %114 = tail call ptr @devm_hwmon_device_register_with_info(ptr noundef %4, ptr noundef %19, ptr noundef nonnull %12, ptr noundef nonnull @hwm_chip_info, ptr noundef nonnull @hwm_groups) #10
  %115 = icmp ugt ptr %114, inttoptr (i64 -4096 to ptr)
  br i1 %115, label %116, label %117

116:                                              ; preds = %113
  store ptr null, ptr %15, align 8
  br label %145

117:                                              ; preds = %113
  %118 = getelementptr inbounds i8, ptr %12, i64 16
  store ptr %114, ptr %118, align 8
  %119 = getelementptr inbounds i8, ptr %0, i64 9304
  %120 = getelementptr inbounds i8, ptr %12, i64 88
  br label %121

121:                                              ; preds = %142, %117
  %122 = phi i64 [ 0, %117 ], [ %143, %142 ]
  %123 = getelementptr [2 x ptr], ptr %119, i64 0, i64 %122
  %124 = load ptr, ptr %123, align 8
  %125 = icmp eq ptr %124, null
  br i1 %125, label %142, label %126

126:                                              ; preds = %121
  %127 = getelementptr %struct.hwm_drvdata, ptr %120, i64 %122
  %128 = load ptr, ptr %127, align 8
  %129 = getelementptr inbounds i8, ptr %127, i64 52
  %130 = load i32, ptr %129, align 4
  %131 = icmp slt i32 %130, 0
  %132 = select i1 %131, i64 312, i64 316
  %133 = getelementptr inbounds i8, ptr %128, i64 %132
  %134 = load i32, ptr %133, align 4
  %135 = icmp eq i32 %134, 0
  br i1 %135, label %142, label %136

136:                                              ; preds = %126
  %137 = getelementptr inbounds i8, ptr %127, i64 40
  %138 = tail call ptr @devm_hwmon_device_register_with_info(ptr noundef %4, ptr noundef %137, ptr noundef %127, ptr noundef nonnull @hwm_gt_chip_info, ptr noundef null) #10
  %139 = icmp ugt ptr %138, inttoptr (i64 -4096 to ptr)
  br i1 %139, label %142, label %140

140:                                              ; preds = %136
  %141 = getelementptr inbounds i8, ptr %127, i64 16
  store ptr %138, ptr %141, align 8
  br label %142

142:                                              ; preds = %140, %136, %126, %121
  %143 = add nuw nsw i64 %122, 1
  %144 = icmp eq i64 %122, 0
  br i1 %144, label %121, label %145, !llvm.loop !10

145:                                              ; preds = %142, %116, %11, %1
  ret void
}