; Function Attrs: fn_ret_thunk_extern nounwind null_pointer_is_valid
define dso_local void @i915_hwmon_register(ptr noundef %0) local_unnamed_addr #0 align 16 {
  %2 = getelementptr inbounds i8, ptr %0, i64 8
  %3 = load ptr, ptr %2, align 8
  %4 = getelementptr inbounds i8, ptr %0, i64 7168
  %5 = load ptr, ptr %4, align 8
  %6 = getelementptr inbounds i8, ptr %5, i64 28
  %7 = load i64, ptr %6, align 4
  %8 = and i64 %7, 8
  %9 = icmp eq i64 %8, 0
  br i1 %9, label %.loopexit, label %10

10:                                               ; preds = %1
  %11 = tail call noalias noundef dereferenceable_or_null(336) ptr @devm_kmalloc(ptr noundef %3, i64 noundef 336, i32 noundef 3520) #11
  %12 = icmp eq ptr %11, null
  br i1 %12, label %.loopexit, label %13

13:                                               ; preds = %10
  %14 = getelementptr inbounds i8, ptr %0, i64 9296
  store ptr %11, ptr %14, align 8
  %15 = getelementptr inbounds i8, ptr %11, i64 264
  tail call void @__mutex_init(ptr noundef %15, ptr noundef nonnull @.str, ptr noundef nonnull @i915_hwmon_register.__key) #10
  store ptr %11, ptr %11, align 8
  %16 = getelementptr inbounds i8, ptr %0, i64 7368
  %17 = getelementptr inbounds i8, ptr %11, i64 8
  store ptr %16, ptr %17, align 8
  %18 = getelementptr inbounds i8, ptr %11, i64 40
  tail call void @llvm.memcpy.p0.p0.i64(ptr noundef align 1 dereferenceable(5) %18, ptr noundef nonnull align 1 dereferenceable(5) @.str.1, i64 5, i1 false)
  %19 = getelementptr inbounds i8, ptr %11, i64 52
  store i32 -1, ptr %19, align 4
  %20 = getelementptr inbounds i8, ptr %11, i64 64
  tail call void @__init_waitqueue_head(ptr noundef %20, ptr noundef nonnull @.str.3, ptr noundef nonnull @i915_hwmon_register.__key.2) #10
  %21 = getelementptr inbounds i8, ptr %0, i64 9304
  %22 = getelementptr inbounds i8, ptr %11, i64 88
  br label %23

23:                                               ; preds = %38, %13
  %24 = phi i1 [ true, %13 ], [ false, %38 ]
  %25 = phi i64 [ 0, %13 ], [ 1, %38 ]
  %26 = getelementptr [2 x ptr], ptr %21, i64 0, i64 %25
  %27 = load ptr, ptr %26, align 8
  %28 = icmp eq ptr %27, null
  br i1 %28, label %38, label %29

29:                                               ; preds = %23
  %30 = getelementptr %struct.hwm_drvdata, ptr %22, i64 %25
  store ptr %11, ptr %30, align 8
  %31 = getelementptr inbounds i8, ptr %27, i64 24
  %32 = load ptr, ptr %31, align 8
  %33 = getelementptr inbounds i8, ptr %30, i64 8
  store ptr %32, ptr %33, align 8
  %34 = getelementptr inbounds i8, ptr %30, i64 40
  %35 = trunc i64 %25 to i32
  %36 = tail call i32 (ptr, i64, ptr, ...) @snprintf(ptr noundef %34, i64 noundef 12, ptr noundef nonnull @.str.4, i32 noundef %35) #10
  %37 = getelementptr inbounds i8, ptr %30, i64 52
  store i32 %35, ptr %37, align 4
  br label %38

38:                                               ; preds = %29, %23
  br i1 %24, label %23, label %39, !llvm.loop !5

39:                                               ; preds = %38
  %40 = load ptr, ptr %14, align 8
  %41 = getelementptr inbounds i8, ptr %40, i64 296
  store i32 1278388, ptr %41, align 8
  %42 = getelementptr i8, ptr %0, i64 7188
  %43 = load i32, ptr %42, align 4
  %44 = zext i32 %43 to i64
  %45 = and i64 %44, 2176
  %46 = icmp eq i64 %45, 0
  br i1 %46, label %53, label %47

47:                                               ; preds = %39
  %48 = getelementptr inbounds i8, ptr %40, i64 300
  store i32 1333560, ptr %48, align 4
  %49 = getelementptr inbounds i8, ptr %40, i64 304
  store i32 1333552, ptr %49, align 8
  %50 = getelementptr inbounds i8, ptr %40, i64 308
  store i32 1333664, ptr %50, align 4
  %51 = getelementptr inbounds i8, ptr %40, i64 312
  store i32 1333564, ptr %51, align 8
  %52 = getelementptr inbounds i8, ptr %40, i64 316
  store i32 0, ptr %52, align 4
  br label %63

53:                                               ; preds = %39
  %54 = and i64 %44, 1024
  %55 = icmp eq i64 %54, 0
  %56 = getelementptr inbounds i8, ptr %40, i64 300
  br i1 %55, label %62, label %57

57:                                               ; preds = %53
  store i32 2424936, ptr %56, align 4
  %58 = getelementptr inbounds i8, ptr %40, i64 304
  store i32 0, ptr %58, align 8
  %59 = getelementptr inbounds i8, ptr %40, i64 308
  store i32 2424840, ptr %59, align 4
  %60 = getelementptr inbounds i8, ptr %40, i64 312
  store i32 2424940, ptr %60, align 8
  %61 = getelementptr inbounds i8, ptr %40, i64 316
  store i32 2424836, ptr %61, align 4
  br label %63

62:                                               ; preds = %53
  tail call void @llvm.memset.p0.i64(ptr noundef align 4 dereferenceable(20) %56, i8 0, i64 20, i1 false)
  br label %63

63:                                               ; preds = %62, %57, %47
  %64 = getelementptr inbounds i8, ptr %0, i64 7392
  %65 = load ptr, ptr %64, align 8
  %66 = tail call i64 @intel_runtime_pm_get(ptr noundef %65) #10
  %67 = icmp eq i64 %66, 0
  br i1 %67, label %79, label %68

68:                                               ; preds = %63
  %69 = getelementptr inbounds i8, ptr %40, i64 300
  %70 = load i32, ptr %69, align 4
  %71 = icmp eq i32 %70, 0
  br i1 %71, label %76, label %72

72:                                               ; preds = %68
  %73 = getelementptr inbounds i8, ptr %0, i64 7512
  %74 = load ptr, ptr %73, align 8
  %75 = tail call i32 %74(ptr noundef %16, i32 %70, i1 noundef zeroext true) #10
  br label %76

76:                                               ; preds = %72, %68
  %77 = phi i32 [ 0, %68 ], [ %75, %72 ]
  %78 = load ptr, ptr %64, align 8
  tail call void @intel_runtime_pm_put_unchecked(ptr noundef %78) #10
  br label %79

79:                                               ; preds = %76, %63
  %80 = phi i32 [ %77, %76 ], [ 0, %63 ]
  %81 = and i32 %80, 15
  %82 = getelementptr inbounds i8, ptr %40, i64 320
  store i32 %81, ptr %82, align 8
  %83 = lshr i32 %80, 8
  %84 = and i32 %83, 31
  %85 = getelementptr inbounds i8, ptr %40, i64 324
  store i32 %84, ptr %85, align 4
  %86 = lshr i32 %80, 16
  %87 = and i32 %86, 15
  %88 = getelementptr inbounds i8, ptr %40, i64 328
  store i32 %87, ptr %88, align 8
  %89 = getelementptr inbounds i8, ptr %40, i64 312
  %90 = load i32, ptr %89, align 8
  %91 = icmp eq i32 %90, 0
  br i1 %91, label %124, label %92

92:                                               ; preds = %79
  %93 = getelementptr inbounds i8, ptr %40, i64 8
  %94 = load ptr, ptr %93, align 8
  %95 = load ptr, ptr %40, align 8
  %96 = getelementptr inbounds i8, ptr %40, i64 52
  %97 = load i32, ptr %96, align 4
  %98 = icmp slt i32 %97, 0
  %99 = select i1 %98, i64 312, i64 316
  %100 = getelementptr inbounds i8, ptr %95, i64 %99
  %101 = load i32, ptr %100, align 4
  %102 = getelementptr inbounds i8, ptr %95, i64 264
  tail call void @mutex_lock(ptr noundef %102) #10
  %103 = getelementptr inbounds i8, ptr %94, i64 24
  %104 = load ptr, ptr %103, align 8
  %105 = tail call i64 @intel_runtime_pm_get(ptr noundef %104) #10
  %106 = icmp eq i64 %105, 0
  br i1 %106, label %hwm_energy.exit, label %107

107:                                              ; preds = %92
  %108 = getelementptr inbounds i8, ptr %94, i64 144
  %109 = load ptr, ptr %108, align 8
  %110 = tail call i32 %109(ptr noundef %94, i32 %101, i1 noundef zeroext true) #10
  %111 = load ptr, ptr %103, align 8
  tail call void @intel_runtime_pm_put_unchecked(ptr noundef %111) #10
  br label %hwm_energy.exit

hwm_energy.exit:                                  ; preds = %92, %107
  %112 = phi i32 [ %110, %107 ], [ 0, %92 ]
  %113 = getelementptr inbounds i8, ptr %40, i64 24
  %114 = load i32, ptr %113, align 8
  %115 = icmp ult i32 %112, %114
  %116 = xor i32 %114, -1
  %117 = sub i32 0, %114
  %118 = select i1 %115, i32 %116, i32 %117
  %119 = add i32 %118, %112
  %120 = zext i32 %119 to i64
  %121 = getelementptr inbounds i8, ptr %40, i64 32
  %122 = load i64, ptr %121, align 8
  %123 = add i64 %122, %120
  store i64 %123, ptr %121, align 8
  store i32 %112, ptr %113, align 8
  tail call void @mutex_unlock(ptr noundef %102) #10
  br label %124

124:                                              ; preds = %hwm_energy.exit, %79
  %125 = getelementptr inbounds i8, ptr %40, i64 316
  %126 = load i32, ptr %125, align 4
  %127 = icmp eq i32 %126, 0
  br i1 %127, label %.loopexit6, label %128

128:                                              ; preds = %124
  %129 = getelementptr inbounds i8, ptr %40, i64 88
  br label %130

130:                                              ; preds = %169, %128
  %131 = phi i1 [ true, %128 ], [ false, %169 ]
  %132 = phi i64 [ 0, %128 ], [ 1, %169 ]
  %133 = getelementptr [2 x ptr], ptr %21, i64 0, i64 %132
  %134 = load ptr, ptr %133, align 8
  %135 = icmp eq ptr %134, null
  br i1 %135, label %169, label %136

136:                                              ; preds = %130
  %137 = getelementptr [2 x %struct.hwm_drvdata], ptr %129, i64 0, i64 %132
  %138 = getelementptr inbounds i8, ptr %137, i64 8
  %139 = load ptr, ptr %138, align 8
  %140 = load ptr, ptr %137, align 8
  %141 = getelementptr inbounds i8, ptr %137, i64 52
  %142 = load i32, ptr %141, align 4
  %143 = icmp slt i32 %142, 0
  %144 = select i1 %143, i64 312, i64 316
  %145 = getelementptr inbounds i8, ptr %140, i64 %144
  %146 = load i32, ptr %145, align 4
  %147 = getelementptr inbounds i8, ptr %140, i64 264
  tail call void @mutex_lock(ptr noundef %147) #10
  %148 = getelementptr inbounds i8, ptr %139, i64 24
  %149 = load ptr, ptr %148, align 8
  %150 = tail call i64 @intel_runtime_pm_get(ptr noundef %149) #10
  %151 = icmp eq i64 %150, 0
  br i1 %151, label %hwm_energy.exit5, label %152

152:                                              ; preds = %136
  %153 = getelementptr inbounds i8, ptr %139, i64 144
  %154 = load ptr, ptr %153, align 8
  %155 = tail call i32 %154(ptr noundef %139, i32 %146, i1 noundef zeroext true) #10
  %156 = load ptr, ptr %148, align 8
  tail call void @intel_runtime_pm_put_unchecked(ptr noundef %156) #10
  br label %hwm_energy.exit5

hwm_energy.exit5:                                 ; preds = %136, %152
  %157 = phi i32 [ %155, %152 ], [ 0, %136 ]
  %158 = getelementptr inbounds i8, ptr %137, i64 24
  %159 = load i32, ptr %158, align 8
  %160 = icmp ult i32 %157, %159
  %161 = xor i32 %159, -1
  %162 = sub i32 0, %159
  %163 = select i1 %160, i32 %161, i32 %162
  %164 = add i32 %163, %157
  %165 = zext i32 %164 to i64
  %166 = getelementptr inbounds i8, ptr %137, i64 32
  %167 = load i64, ptr %166, align 8
  %168 = add i64 %167, %165
  store i64 %168, ptr %166, align 8
  store i32 %157, ptr %158, align 8
  tail call void @mutex_unlock(ptr noundef %147) #10
  br label %169

169:                                              ; preds = %hwm_energy.exit5, %130
  br i1 %131, label %130, label %.loopexit6, !llvm.loop !8

.loopexit6:                                       ; preds = %169, %124
  %170 = tail call ptr @devm_hwmon_device_register_with_info(ptr noundef %3, ptr noundef %18, ptr noundef nonnull %11, ptr noundef nonnull @hwm_chip_info, ptr noundef nonnull @hwm_groups) #10
  %171 = icmp ugt ptr %170, inttoptr (i64 -4096 to ptr)
  br i1 %171, label %172, label %173

172:                                              ; preds = %.loopexit6
  store ptr null, ptr %14, align 8
  br label %.loopexit

173:                                              ; preds = %.loopexit6
  %174 = getelementptr inbounds i8, ptr %11, i64 16
  store ptr %170, ptr %174, align 8
  br label %175

175:                                              ; preds = %197, %173
  %176 = phi i1 [ true, %173 ], [ false, %197 ]
  %177 = phi i64 [ 0, %173 ], [ 1, %197 ]
  %178 = getelementptr [2 x ptr], ptr %21, i64 0, i64 %177
  %179 = load ptr, ptr %178, align 8
  %180 = icmp eq ptr %179, null
  br i1 %180, label %197, label %181

181:                                              ; preds = %175
  %182 = getelementptr %struct.hwm_drvdata, ptr %22, i64 %177
  %183 = load ptr, ptr %182, align 8
  %184 = getelementptr inbounds i8, ptr %182, i64 52
  %185 = load i32, ptr %184, align 4
  %186 = icmp slt i32 %185, 0
  %187 = select i1 %186, i64 312, i64 316
  %188 = getelementptr inbounds i8, ptr %183, i64 %187
  %189 = load i32, ptr %188, align 4
  %190 = icmp eq i32 %189, 0
  br i1 %190, label %197, label %191

191:                                              ; preds = %181
  %192 = getelementptr inbounds i8, ptr %182, i64 40
  %193 = tail call ptr @devm_hwmon_device_register_with_info(ptr noundef %3, ptr noundef %192, ptr noundef %182, ptr noundef nonnull @hwm_gt_chip_info, ptr noundef null) #10
  %194 = icmp ugt ptr %193, inttoptr (i64 -4096 to ptr)
  br i1 %194, label %197, label %195

195:                                              ; preds = %191
  %196 = getelementptr inbounds i8, ptr %182, i64 16
  store ptr %193, ptr %196, align 8
  br label %197

197:                                              ; preds = %195, %191, %181, %175
  br i1 %176, label %175, label %.loopexit, !llvm.loop !9

.loopexit:                                        ; preds = %197, %172, %10, %1
  ret void
}